target datalayout = "e-m:e-p270:32:32-p271:32:32-p272:64:64-i64:64-i128:128-f80:128-n8:16:32:64-S128"
target triple = "x86_64-pc-linux-gnu"

@.str.18 = private unnamed_addr constant [35 x i8] c"failed to expand user dir in: '%s'\00", align 1
@.str.74 = private unnamed_addr constant [23 x i8] c"missing value for '%s'\00", align 1

; Function Attrs: inlinehint nounwind uwtable
define internal i32 @const_error() #6 {
  ret i32 -1
}

; Function Attrs: nounwind uwtable
define dso_local i32 @config_error_nonbool(ptr noundef %0) #0 {
  %2 = alloca ptr, align 8
  store ptr %0, ptr %2, align 8, !tbaa !4
  %3 = call ptr @_(ptr noundef @.str.74)
  %4 = load ptr, ptr %2, align 8, !tbaa !4
  %5 = call i32 (ptr, ...) @error(ptr noundef %3, ptr noundef %4)
  %6 = call i32 @const_error()
  ret i32 %6
}

; Function Attrs: nounwind uwtable
define dso_local i32 @git_config_pathname(ptr noundef %0, ptr noundef %1, ptr noundef %2) #0 {
  %4 = alloca i32, align 4
  %5 = alloca ptr, align 8
  %6 = alloca ptr, align 8
  %7 = alloca ptr, align 8
  store ptr %0, ptr %5, align 8, !tbaa !15
  store ptr %1, ptr %6, align 8, !tbaa !4
  store ptr %2, ptr %7, align 8, !tbaa !4
  %8 = load ptr, ptr %7, align 8, !tbaa !4
  %9 = icmp ne ptr %8, null
  br i1 %9, label %14, label %10

10:                                               ; preds = %3
  %11 = load ptr, ptr %6, align 8, !tbaa !4
  %12 = call i32 @config_error_nonbool(ptr noundef %11)
  %13 = call i32 @const_error()
  store i32 %13, ptr %4, align 4
  br label %25

14:                                               ; preds = %3
  %15 = load ptr, ptr %7, align 8, !tbaa !4
  %16 = call ptr @interpolate_path(ptr noundef %15, i32 noundef 0)
  %17 = load ptr, ptr %5, align 8, !tbaa !15
  store ptr %16, ptr %17, align 8, !tbaa !4
  %18 = load ptr, ptr %5, align 8, !tbaa !15
  %19 = load ptr, ptr %18, align 8, !tbaa !4
  %20 = icmp ne ptr %19, null
  br i1 %20, label %24, label %21

21:                                               ; preds = %14
  %22 = call ptr @_(ptr noundef @.str.18)
  %23 = load ptr, ptr %7, align 8, !tbaa !4
  call void (ptr, ...) @die(ptr noundef %22, ptr noundef %23) #15
  unreachable

24:                                               ; preds = %14
  store i32 0, ptr %4, align 4
  br label %25

25:                                               ; preds = %24, %10
  %26 = load i32, ptr %4, align 4
  ret i32 %26
}