; Function Attrs: nounwind uwtable
define dso_local range(i32 -1, 1) i32 @git_config_pathname(ptr noundef writeonly captures(none) %0, ptr noundef %1, ptr noundef %2) local_unnamed_addr #0 {
  %.not = icmp eq ptr %2, null
  br i1 %.not, label %4, label %9

4:                                                ; preds = %3
  %5 = load i32, ptr @git_gettext_enabled, align 4, !tbaa !14
  %.not4.i.i = icmp eq i32 %5, 0
  br i1 %.not4.i.i, label %config_error_nonbool.exit, label %6

6:                                                ; preds = %4
  %7 = tail call ptr @dcgettext(ptr noundef null, ptr noundef nonnull @.str.74, i32 noundef 5) #30
  br label %config_error_nonbool.exit

config_error_nonbool.exit:                        ; preds = %4, %6
  %.0.i.i = phi ptr [ %7, %6 ], [ @.str.74, %4 ]
  %8 = tail call i32 (ptr, ...) @error(ptr noundef %.0.i.i, ptr noundef %1) #30
  br label %13

9:                                                ; preds = %3
  %10 = tail call ptr @interpolate_path(ptr noundef nonnull %2, i32 noundef 0) #30
  store ptr %10, ptr %0, align 8, !tbaa !17
  %.not7 = icmp eq ptr %10, null
  br i1 %.not7, label %11, label %13

11:                                               ; preds = %9
  %12 = tail call fastcc ptr @_(ptr noundef nonnull @.str.18)
  tail call void (ptr, ...) @die(ptr noundef %12, ptr noundef nonnull %2) #31
  unreachable

13:                                               ; preds = %9, %config_error_nonbool.exit
  %.0 = phi i32 [ -1, %config_error_nonbool.exit ], [ 0, %9 ]
  ret i32 %.0
}